Certificate:
    Data:
        Version: 3 (0x2)
        Serial Number: 18 (0x12)
    Signature Algorithm: sha256WithRSAEncryption
        Issuer: C=FI, O=Ericsson, CN=TEST Generic TLS Root CA
        Validity
            Not Before: Nov  8 13:11:04 2022 GMT
            Not After : Oct 15 13:11:04 2122 GMT
        Subject: C=FI, O=Ericsson, CN=TEST Generic TLS Sub CA
        Subject Public Key Info:
            Public Key Algorithm: rsaEncryption
                Public-Key: (2048 bit)
                Modulus:
                    00:b0:12:d2:b1:44:2a:30:47:be:23:21:c3:5a:b2:
                    85:3d:d8:53:bb:b0:4e:21:b1:da:aa:d3:b0:9b:0f:
                    57:2b:06:4b:b0:61:9a:3e:28:92:82:5b:8c:45:07:
                    e4:8c:9c:61:7c:01:a1:88:2e:e4:06:fa:44:76:fc:
                    f7:8a:bc:dd:f7:61:36:d4:49:ca:29:28:8e:b8:76:
                    2e:aa:4f:2e:47:84:0d:61:cc:f9:2b:31:fb:7b:8e:
                    f0:ee:9f:de:f2:c7:2c:eb:d9:5f:2b:f9:93:15:bc:
                    e7:19:4b:cc:9f:85:6c:e3:a1:b2:ce:32:b7:0f:02:
                    a0:a2:a4:97:1a:3e:5a:8b:61:ba:67:4d:72:5e:d5:
                    8e:70:8a:b7:79:57:7f:94:b3:c2:19:e2:23:e2:5c:
                    eb:bc:1e:62:33:b5:51:f6:63:7d:48:0b:eb:8c:21:
                    0a:45:d1:8f:64:b9:78:7a:c3:50:fb:58:a4:7d:59:
                    7c:b1:b5:ef:4c:14:e1:e7:c3:bb:fd:7f:fa:a3:24:
                    08:ed:1e:c6:d6:98:c5:03:86:81:30:3f:66:e0:39:
                    0a:1d:05:d3:0a:94:db:c8:6d:46:d4:d8:f3:e9:de:
                    3f:5e:68:6a:cf:23:06:14:03:68:91:d6:bf:6e:b0:
                    3c:1d:0b:07:8e:82:77:0b:9a:f4:df:0a:2c:f9:00:
                    f7:a5
                Exponent: 65537 (0x10001)
        X509v3 extensions:
            X509v3 Basic Constraints: critical
                CA:TRUE
            X509v3 Subject Key Identifier: 
                9D:65:5B:68:22:4B:9D:43:5D:96:48:4A:FC:D1:82:8E:C2:82:54:77
            X509v3 Authority Key Identifier: 
                keyid:9C:87:A3:C8:CF:FD:90:60:50:C8:EA:1A:EF:C7:58:18:61:89:14:62

            X509v3 Key Usage: critical
                Certificate Sign, CRL Sign
    Signature Algorithm: sha256WithRSAEncryption
         53:c9:8a:88:52:de:6a:38:76:1d:60:72:7a:c7:4f:ea:61:96:
         08:d7:42:66:f1:4e:14:3b:85:0d:6a:fd:d8:08:61:4f:34:f3:
         46:b9:e7:f0:39:8a:96:ca:cf:c8:5b:34:a6:77:34:20:c1:c5:
         ea:a9:fc:ea:04:4a:41:9c:a3:34:fc:4c:46:04:42:32:9f:3d:
         82:0f:c2:ec:2b:dd:e3:5d:8a:8c:7a:70:ab:5f:ae:87:b2:12:
         2b:ef:9d:a6:27:d7:b9:22:3d:50:3c:21:f1:66:69:77:4f:b1:
         32:b7:27:4b:a1:a8:b2:3c:7f:43:28:09:8c:85:af:aa:76:78:
         a1:cd:79:c5:5f:1f:40:55:c6:ac:fa:62:00:7a:1a:d0:1e:c8:
         09:7f:67:70:cf:ed:da:d7:29:44:d7:bd:a7:67:55:dd:fc:e3:
         e1:79:55:b9:13:16:fd:1d:39:86:08:5d:5c:b8:f6:fb:e7:b1:
         fa:00:0f:52:6b:a6:a8:07:c3:b2:97:3a:3f:b4:e2:fb:01:ec:
         3f:31:55:32:dd:26:c8:4d:27:fe:d9:6d:79:30:43:65:81:69:
         a2:74:a2:6d:ce:8c:8c:f1:29:c5:71:51:4a:ad:07:ae:99:bf:
         ec:58:7d:3f:73:b7:95:9b:5f:fd:1c:79:d2:32:ca:18:97:9d:
         c8:cc:3a:b6
-----BEGIN CERTIFICATE-----
MIIDZTCCAk2gAwIBAgIBEjANBgkqhkiG9w0BAQsFADBDMQswCQYDVQQGEwJGSTER
MA8GA1UECgwIRXJpY3Nzb24xITAfBgNVBAMMGFRFU1QgR2VuZXJpYyBUTFMgUm9v
dCBDQTAgFw0yMjExMDgxMzExMDRaGA8yMTIyMTAxNTEzMTEwNFowQjELMAkGA1UE
BhMCRkkxETAPBgNVBAoMCEVyaWNzc29uMSAwHgYDVQQDDBdURVNUIEdlbmVyaWMg
VExTIFN1YiBDQTCCASIwDQYJKoZIhvcNAQEBBQADggEPADCCAQoCggEBALAS0rFE
KjBHviMhw1qyhT3YU7uwTiGx2qrTsJsPVysGS7Bhmj4okoJbjEUH5IycYXwBoYgu
5Ab6RHb894q83fdhNtRJyikojrh2LqpPLkeEDWHM+Ssx+3uO8O6f3vLHLOvZXyv5
kxW85xlLzJ+FbOOhss4ytw8CoKKklxo+WothumdNcl7VjnCKt3lXf5SzwhniI+Jc
67weYjO1UfZjfUgL64whCkXRj2S5eHrDUPtYpH1ZfLG170wU4efDu/1/+qMkCO0e
xtaYxQOGgTA/ZuA5Ch0F0wqU28htRtTY8+neP15oas8jBhQDaJHWv26wPB0LB46C
dwua9N8KLPkA96UCAwEAAaNjMGEwDwYDVR0TAQH/BAUwAwEB/zAdBgNVHQ4EFgQU
nWVbaCJLnUNdlkhK/NGCjsKCVHcwHwYDVR0jBBgwFoAUnIejyM/9kGBQyOoa78dY
GGGJFGIwDgYDVR0PAQH/BAQDAgEGMA0GCSqGSIb3DQEBCwUAA4IBAQBTyYqIUt5q
OHYdYHJ6x0/qYZYI10Jm8U4UO4UNav3YCGFPNPNGuefwOYqWys/IWzSmdzQgwcXq
qfzqBEpBnKM0/ExGBEIynz2CD8LsK93jXYqMenCrX66HshIr752mJ9e5Ij1QPCHx
Zml3T7EytydLoaiyPH9DKAmMha+qdnihzXnFXx9AVcas+mIAehrQHsgJf2dwz+3a
1ylE172nZ1Xd/OPheVW5Exb9HTmGCF1cuPb757H6AA9Sa6aoB8Oylzo/tOL7Aew/
MVUy3SbITSf+2W15MENlgWmidKJtzoyM8SnFcVFKrQeumb/sWH0/c7eVm1/9HHnS
MsoYl53IzDq2
-----END CERTIFICATE-----
