Certificate:
    Data:
        Version: 3 (0x2)
        Serial Number: 23 (0x17)
    Signature Algorithm: sha256WithRSAEncryption
        Issuer: C=FI, O=Ericsson, CN=TEST Generic TLS Sub CA
        Validity
            Not Before: Nov 16 02:11:45 2022 GMT
            Not After : Oct 23 02:11:45 2122 GMT
        Subject: C=SE, O=Ericsson, OU=ENMPush, CN=enmapache.athtem.eei.ericsson.se
        Subject Public Key Info:
            Public Key Algorithm: rsaEncryption
                Public-Key: (4096 bit)
                Modulus:
                    00:ba:9a:8e:e9:b7:af:5a:17:23:6a:d2:2b:cc:0c:
                    b9:f8:1b:4b:12:52:3d:76:5d:52:bc:ec:67:fa:8a:
                    d2:00:94:29:f6:06:b9:13:41:cc:ae:b6:71:a3:18:
                    1c:a9:5e:ce:27:8e:fe:19:fb:41:1f:96:39:a1:47:
                    03:94:34:d3:71:14:ba:92:4f:12:a8:37:61:a0:1b:
                    23:41:df:88:57:f9:37:8d:18:d4:2b:44:7c:56:cd:
                    50:5f:dc:7e:cb:3b:86:06:ec:b0:cc:08:be:2f:97:
                    bf:d9:78:5e:57:e8:f4:70:07:db:2b:4f:d8:74:87:
                    e9:d4:3f:ba:73:cb:0f:d1:0b:66:cf:c5:a5:f8:26:
                    1a:06:5b:32:b7:5f:4c:00:a7:de:43:87:5e:32:ea:
                    bc:a4:c3:67:63:fd:db:9c:b8:36:b6:a2:f9:c4:17:
                    d9:f3:f3:61:ad:3c:dc:e9:d6:c8:9f:60:13:3d:0e:
                    e8:2a:bb:c8:1d:bd:77:97:6d:26:8a:27:75:5f:98:
                    79:f3:5c:42:a0:b3:19:ed:d1:50:ff:9c:8b:b1:98:
                    91:d6:75:a9:1e:2f:1e:cb:48:9b:0e:4e:97:fe:03:
                    8a:5a:f4:e7:7b:f4:ee:9d:70:e6:31:79:25:76:db:
                    91:bf:09:58:35:b7:35:fd:e3:33:c0:25:1f:88:85:
                    ff:34:7f:42:68:e6:f3:26:27:4d:2e:d9:74:a8:e1:
                    63:9d:14:85:ac:52:82:88:f1:7d:94:23:c8:b0:8f:
                    65:22:89:ea:50:e8:39:28:3a:3f:ad:90:a1:a0:9a:
                    c4:25:98:5a:25:7e:75:a7:e9:99:98:b9:43:3a:b3:
                    2f:fa:27:aa:18:e5:ce:90:b6:06:2d:5f:55:86:4b:
                    2b:43:72:63:ea:a8:d0:56:44:75:af:ed:66:b1:1b:
                    9b:90:2c:35:44:ec:66:12:96:a5:9b:cd:d1:22:13:
                    6b:4b:a2:89:b2:62:39:bd:fb:cc:33:84:d1:8e:03:
                    50:4f:3d:19:5f:92:55:a5:e5:15:a7:9e:78:8b:ed:
                    54:41:97:76:79:67:5d:f4:a3:5f:6a:7c:76:9c:04:
                    ab:8c:80:ab:f0:7e:67:0d:00:f6:9d:5f:69:e1:46:
                    12:55:58:76:59:38:7f:b6:41:6d:c1:37:25:b7:58:
                    62:ea:a5:66:ac:a5:f3:21:4d:d8:1e:56:bb:b7:fc:
                    bf:21:63:7b:04:0b:dc:f4:9f:c2:8c:45:e1:e9:63:
                    2e:fe:fe:14:df:8d:92:79:e8:4b:69:58:ed:e8:c6:
                    a5:59:db:71:58:b9:58:ed:c6:27:13:f0:32:af:74:
                    3f:78:ab:91:e1:87:49:19:55:b5:f1:4a:f8:23:8b:
                    db:b8:81
                Exponent: 65537 (0x10001)
        X509v3 extensions:
            X509v3 Basic Constraints: critical
                CA:FALSE
            X509v3 Subject Key Identifier: 
                EA:CE:09:14:FF:44:22:28:E0:DE:E2:8A:C0:D3:14:3B:6C:CF:40:39
            X509v3 Authority Key Identifier: 
                keyid:9D:65:5B:68:22:4B:9D:43:5D:96:48:4A:FC:D1:82:8E:C2:82:54:77

            X509v3 Subject Alternative Name: critical
                DNS:enmapache.athtem.eei.ericsson.se, IP Address:10.247.246.41
            X509v3 Extended Key Usage: critical
                TLS Web Client Authentication, TLS Web Server Authentication
            X509v3 Key Usage: critical
                Digital Signature, Key Encipherment
    Signature Algorithm: sha256WithRSAEncryption
         0f:22:c6:9e:90:a9:28:6f:3b:95:af:e2:e2:8c:98:05:39:5b:
         e0:58:6e:58:02:5c:eb:b4:79:ec:d1:8b:e4:4f:3f:c5:f2:1b:
         a2:97:45:c1:e8:6d:d6:67:4b:5f:5e:a9:3c:6f:38:0f:00:01:
         9a:da:ce:cf:02:a0:b2:8a:b2:47:ec:57:25:58:82:95:d0:e3:
         f3:cd:d8:9e:3c:39:4d:54:bf:28:fa:a6:54:a1:25:55:b1:e0:
         ac:40:fb:41:98:99:87:80:87:24:d9:36:c5:aa:33:ce:6b:68:
         1c:7a:2f:de:e6:b1:ad:af:cd:47:f7:70:c1:91:b5:f9:e9:64:
         85:d1:61:14:f5:60:4b:14:e2:5b:9a:7c:7c:8f:fa:18:f6:2a:
         3b:59:81:4d:8c:19:77:4a:d6:d2:7f:8b:95:7d:50:e7:20:1e:
         b0:1a:b7:eb:fb:fc:6d:b0:39:6c:82:bd:7a:77:0e:06:f4:eb:
         98:39:bd:c1:18:ec:2c:d2:0d:c0:b1:50:fa:77:79:a6:15:e8:
         de:4e:20:2c:2a:7c:7c:8e:c9:b7:d8:44:6b:c7:fb:d7:16:2e:
         12:5c:d3:ee:88:82:4b:50:10:6e:da:17:23:bd:78:6d:56:76:
         4d:a3:19:db:47:be:71:90:41:98:e4:d0:71:f4:33:84:f4:a7:
         bc:9a:dd:07
-----BEGIN CERTIFICATE-----
MIIE1jCCA76gAwIBAgIBFzANBgkqhkiG9w0BAQsFADBCMQswCQYDVQQGEwJGSTER
MA8GA1UECgwIRXJpY3Nzb24xIDAeBgNVBAMMF1RFU1QgR2VuZXJpYyBUTFMgU3Vi
IENBMCAXDTIyMTExNjAyMTE0NVoYDzIxMjIxMDIzMDIxMTQ1WjBdMQswCQYDVQQG
EwJTRTERMA8GA1UECgwIRXJpY3Nzb24xEDAOBgNVBAsMB0VOTVB1c2gxKTAnBgNV
BAMMIGVubWFwYWNoZS5hdGh0ZW0uZWVpLmVyaWNzc29uLnNlMIICIjANBgkqhkiG
9w0BAQEFAAOCAg8AMIICCgKCAgEAupqO6bevWhcjatIrzAy5+BtLElI9dl1SvOxn
+orSAJQp9ga5E0HMrrZxoxgcqV7OJ47+GftBH5Y5oUcDlDTTcRS6kk8SqDdhoBsj
Qd+IV/k3jRjUK0R8Vs1QX9x+yzuGBuywzAi+L5e/2XheV+j0cAfbK0/YdIfp1D+6
c8sP0Qtmz8Wl+CYaBlsyt19MAKfeQ4deMuq8pMNnY/3bnLg2tqL5xBfZ8/NhrTzc
6dbIn2ATPQ7oKrvIHb13l20miid1X5h581xCoLMZ7dFQ/5yLsZiR1nWpHi8ey0ib
Dk6X/gOKWvTne/TunXDmMXkldtuRvwlYNbc1/eMzwCUfiIX/NH9CaObzJidNLtl0
qOFjnRSFrFKCiPF9lCPIsI9lIonqUOg5KDo/rZChoJrEJZhaJX51p+mZmLlDOrMv
+ieqGOXOkLYGLV9VhksrQ3Jj6qjQVkR1r+1msRubkCw1ROxmEpalm83RIhNrS6KJ
smI5vfvMM4TRjgNQTz0ZX5JVpeUVp554i+1UQZd2eWdd9KNfanx2nASrjICr8H5n
DQD2nV9p4UYSVVh2WTh/tkFtwTclt1hi6qVmrKXzIU3YHla7t/y/IWN7BAvc9J/C
jEXh6WMu/v4U342SeehLaVjt6MalWdtxWLlY7cYnE/Ayr3Q/eKuR4YdJGVW18Ur4
I4vbuIECAwEAAaOBuTCBtjAMBgNVHRMBAf8EAjAAMB0GA1UdDgQWBBTqzgkU/0Qi
KODe4orA0xQ7bM9AOTAfBgNVHSMEGDAWgBSdZVtoIkudQ12WSEr80YKOwoJUdzA0
BgNVHREBAf8EKjAogiBlbm1hcGFjaGUuYXRodGVtLmVlaS5lcmljc3Nvbi5zZYcE
Cvf2KTAgBgNVHSUBAf8EFjAUBggrBgEFBQcDAgYIKwYBBQUHAwEwDgYDVR0PAQH/
BAQDAgWgMA0GCSqGSIb3DQEBCwUAA4IBAQAPIsaekKkobzuVr+LijJgFOVvgWG5Y
AlzrtHns0YvkTz/F8huil0XB6G3WZ0tfXqk8bzgPAAGa2s7PAqCyirJH7FclWIKV
0OPzzdiePDlNVL8o+qZUoSVVseCsQPtBmJmHgIck2TbFqjPOa2gcei/e5rGtr81H
93DBkbX56WSF0WEU9WBLFOJbmnx8j/oY9io7WYFNjBl3StbSf4uVfVDnIB6wGrfr
+/xtsDlsgr16dw4G9OuYOb3BGOws0g3AsVD6d3mmFejeTiAsKnx8jsm32ERrx/vX
Fi4SXNPuiIJLUBBu2hcjvXhtVnZNoxnbR75xkEGY5NBx9DOE9Ke8mt0H
-----END CERTIFICATE-----
