Certificate:
    Data:
        Version: 3 (0x2)
        Serial Number: 25 (0x19)
    Signature Algorithm: sha256WithRSAEncryption
        Issuer: C=FI, O=Ericsson, CN=TEST Generic TLS Sub CA
        Validity
            Not Before: Nov 16 03:26:33 2022 GMT
            Not After : Oct 23 03:26:33 2122 GMT
        Subject: C=SE, O=Ericsson, OU=ENMPush, CN=10.247.246.95
        Subject Public Key Info:
            Public Key Algorithm: rsaEncryption
                Public-Key: (4096 bit)
                Modulus:
                    00:ce:c9:ff:10:72:c0:50:49:a3:20:9a:b0:d4:3f:
                    16:f9:0d:11:3d:ca:05:56:a4:22:23:64:c8:62:d6:
                    9b:c8:68:92:df:b0:c8:3c:a0:07:2c:2c:53:68:f5:
                    28:af:eb:d0:3d:3d:1b:1b:c0:0a:3b:53:de:7a:52:
                    09:7d:29:b4:40:be:ed:a9:51:50:ae:5b:78:ab:21:
                    86:fe:85:85:9b:67:88:74:60:73:ba:37:37:0b:5d:
                    29:c8:30:1e:ed:0c:6d:96:b0:41:e5:bf:34:27:19:
                    1c:1f:08:33:b8:d8:86:61:fd:87:1d:56:9f:64:c4:
                    6b:5b:37:04:35:48:9e:85:50:8a:ce:bc:40:1c:22:
                    a2:cf:42:9f:51:74:24:f8:86:b0:18:03:98:50:d5:
                    a5:5d:b3:87:f0:b0:e2:0b:a5:3d:f6:7a:ad:ad:a6:
                    af:43:2e:e4:9c:76:46:7e:64:44:5f:99:d4:3a:0a:
                    c8:54:a2:a1:ab:22:f3:f4:f1:e2:12:d5:d4:ae:70:
                    06:e2:01:26:42:39:55:26:65:d8:b1:84:04:ee:8e:
                    17:cd:0f:82:ee:03:69:04:fc:e6:e6:0c:5b:80:f9:
                    62:05:fd:07:13:d9:f8:8c:ea:0a:b1:41:03:5d:97:
                    a2:0b:b5:d6:d6:45:80:36:e1:ad:45:be:ac:65:fc:
                    41:3f:02:8a:01:79:0b:1b:e5:71:f9:84:ac:71:01:
                    72:1b:a0:9d:0b:f9:d4:92:95:d1:ac:69:dc:fe:46:
                    63:05:18:dc:cb:85:fb:48:cf:08:a4:93:3a:04:81:
                    c8:1d:56:85:52:85:14:48:e2:22:da:a8:f8:9e:d9:
                    d5:60:e5:b6:55:aa:36:e9:ee:c6:c7:c6:3b:08:da:
                    be:b9:15:5b:50:24:8d:e9:33:68:92:95:98:36:53:
                    7c:53:b2:1c:4f:cf:f2:de:5e:b7:33:3f:b6:c8:97:
                    42:53:94:d8:d3:57:53:41:63:44:e9:14:d3:49:a5:
                    66:a5:90:8f:df:1b:13:e6:ae:0b:8c:ef:a9:27:b2:
                    ab:6b:2b:aa:aa:4b:cb:f2:cd:29:d6:7b:57:10:14:
                    1c:f7:ed:95:25:97:0f:b2:35:73:c2:46:44:bb:58:
                    1f:86:11:b9:02:d3:1d:49:ff:bc:89:29:82:06:3d:
                    db:8b:ed:df:07:4b:39:ca:0f:9f:88:bb:3f:ac:9e:
                    dc:5e:71:4b:1a:dc:6d:72:58:41:57:00:67:ae:2a:
                    cf:31:6f:21:6f:82:84:a3:14:df:b5:fc:b6:1b:44:
                    15:8f:26:5f:21:01:60:5f:fd:dd:91:de:3f:bb:1c:
                    e6:8f:69:4a:e1:64:38:eb:02:e5:2d:b8:3b:8d:97:
                    a2:1c:63
                Exponent: 65537 (0x10001)
        X509v3 extensions:
            X509v3 Basic Constraints: critical
                CA:FALSE
            X509v3 Subject Key Identifier: 
                0D:BA:EC:F4:05:B2:E6:05:1B:C7:5D:88:A9:5C:84:AF:5E:05:D6:0F
            X509v3 Authority Key Identifier: 
                keyid:9D:65:5B:68:22:4B:9D:43:5D:96:48:4A:FC:D1:82:8E:C2:82:54:77

            X509v3 Extended Key Usage: critical
                TLS Web Client Authentication, TLS Web Server Authentication
            X509v3 Key Usage: critical
                Digital Signature, Key Encipherment
            X509v3 Subject Alternative Name: critical
                DNS:enmapache.athtem.eei.ericsson.se, IP Address:10.247.246.95
    Signature Algorithm: sha256WithRSAEncryption
         71:08:7a:d6:88:af:fe:2c:cb:94:54:ae:b2:49:92:82:4b:23:
         ec:4b:ae:fa:59:65:92:69:22:04:a5:17:e0:84:12:df:9a:ca:
         1d:e3:92:53:48:70:ca:41:6e:c1:50:bb:d3:eb:73:82:1f:86:
         b3:45:50:16:b0:93:5a:db:19:fd:c5:28:56:f7:14:43:00:0b:
         c9:65:44:95:0e:c6:0f:e7:e5:31:40:01:01:5e:d3:bc:9f:b5:
         9a:49:0b:95:0b:57:43:1b:27:72:09:72:ae:b6:a1:6f:ae:db:
         a4:ec:c8:28:0f:3a:61:08:a0:b1:c5:a1:e2:38:f5:8e:1a:f6:
         5b:a7:1c:b2:d8:db:ce:bb:38:08:29:bc:e0:19:57:59:c5:63:
         2f:9b:28:10:61:83:98:d2:65:f3:f5:c3:81:81:41:eb:eb:81:
         4b:22:d6:c2:c8:a0:a2:5a:7f:4c:14:68:66:a5:97:85:27:98:
         21:6f:da:e0:05:4c:e7:f8:91:c3:c6:d9:9f:21:98:d3:c0:be:
         e6:64:fb:50:ac:47:05:53:7c:e6:75:90:48:03:f6:ee:a8:78:
         fa:1b:fb:09:30:75:30:10:cc:c2:b2:79:23:a3:a5:a3:4b:a7:
         45:ff:a0:a5:9c:98:ce:52:4d:f8:d8:e1:17:eb:1d:97:ea:c4:
         df:e7:24:3d
-----BEGIN CERTIFICATE-----
MIIEwzCCA6ugAwIBAgIBGTANBgkqhkiG9w0BAQsFADBCMQswCQYDVQQGEwJGSTER
MA8GA1UECgwIRXJpY3Nzb24xIDAeBgNVBAMMF1RFU1QgR2VuZXJpYyBUTFMgU3Vi
IENBMCAXDTIyMTExNjAzMjYzM1oYDzIxMjIxMDIzMDMyNjMzWjBKMQswCQYDVQQG
EwJTRTERMA8GA1UECgwIRXJpY3Nzb24xEDAOBgNVBAsMB0VOTVB1c2gxFjAUBgNV
BAMMDTEwLjI0Ny4yNDYuOTUwggIiMA0GCSqGSIb3DQEBAQUAA4ICDwAwggIKAoIC
AQDOyf8QcsBQSaMgmrDUPxb5DRE9ygVWpCIjZMhi1pvIaJLfsMg8oAcsLFNo9Siv
69A9PRsbwAo7U956Ugl9KbRAvu2pUVCuW3irIYb+hYWbZ4h0YHO6NzcLXSnIMB7t
DG2WsEHlvzQnGRwfCDO42IZh/YcdVp9kxGtbNwQ1SJ6FUIrOvEAcIqLPQp9RdCT4
hrAYA5hQ1aVds4fwsOILpT32eq2tpq9DLuScdkZ+ZERfmdQ6CshUoqGrIvP08eIS
1dSucAbiASZCOVUmZdixhATujhfND4LuA2kE/ObmDFuA+WIF/QcT2fiM6gqxQQNd
l6ILtdbWRYA24a1Fvqxl/EE/AooBeQsb5XH5hKxxAXIboJ0L+dSSldGsadz+RmMF
GNzLhftIzwikkzoEgcgdVoVShRRI4iLaqPie2dVg5bZVqjbp7sbHxjsI2r65FVtQ
JI3pM2iSlZg2U3xTshxPz/LeXrczP7bIl0JTlNjTV1NBY0TpFNNJpWalkI/fGxPm
rguM76knsqtrK6qqS8vyzSnWe1cQFBz37ZUllw+yNXPCRkS7WB+GEbkC0x1J/7yJ
KYIGPduL7d8HSznKD5+Iuz+sntxecUsa3G1yWEFXAGeuKs8xbyFvgoSjFN+1/LYb
RBWPJl8hAWBf/d2R3j+7HOaPaUrhZDjrAuUtuDuNl6IcYwIDAQABo4G5MIG2MAwG
A1UdEwEB/wQCMAAwHQYDVR0OBBYEFA267PQFsuYFG8ddiKlchK9eBdYPMB8GA1Ud
IwQYMBaAFJ1lW2giS51DXZZISvzRgo7CglR3MCAGA1UdJQEB/wQWMBQGCCsGAQUF
BwMCBggrBgEFBQcDATAOBgNVHQ8BAf8EBAMCBaAwNAYDVR0RAQH/BCowKIIgZW5t
YXBhY2hlLmF0aHRlbS5lZWkuZXJpY3Nzb24uc2WHBAr39l8wDQYJKoZIhvcNAQEL
BQADggEBAHEIetaIr/4sy5RUrrJJkoJLI+xLrvpZZZJpIgSlF+CEEt+ayh3jklNI
cMpBbsFQu9Prc4IfhrNFUBawk1rbGf3FKFb3FEMAC8llRJUOxg/n5TFAAQFe07yf
tZpJC5ULV0MbJ3IJcq62oW+u26TsyCgPOmEIoLHFoeI49Y4a9lunHLLY2867OAgp
vOAZV1nFYy+bKBBhg5jSZfP1w4GBQevrgUsi1sLIoKJaf0wUaGall4UnmCFv2uAF
TOf4kcPG2Z8hmNPAvuZk+1CsRwVTfOZ1kEgD9u6oePob+wkwdTAQzMKyeSOjpaNL
p0X/oKWcmM5STfjY4RfrHZfqxN/nJD0=
-----END CERTIFICATE-----
